target datalayout = "e-m:e-p270:32:32-p271:32:32-p272:64:64-i64:64-i128:128-f80:128-n8:16:32:64-S128"
target triple = "x86_64-pc-linux-gnu"

%struct.Ivy_Man_t_ = type { ptr, ptr, ptr, ptr, ptr, %struct.Ivy_Obj_t_, [8 x i32], i32, i32, ptr, i32, i32, i32, i32, ptr, i32, ptr, ptr, ptr, i32, ptr, ptr, ptr, i64, i64 }
%struct.Ivy_Obj_t_ = type { i32, i32, i32, i32, ptr, ptr, ptr, ptr, ptr, ptr, ptr, ptr }

@stdout = external global ptr, align 8
@.str = private unnamed_addr constant [38 x i8] c"Manager contains combinational loop!\0A\00", align 1
@.str.1 = private unnamed_addr constant [55 x i8] c"Node \22%d\22 is encountered twice on the following path:\0A\00", align 1
@.str.2 = private unnamed_addr constant [4 x i8] c" %d\00", align 1
@.str.3 = private unnamed_addr constant [8 x i8] c" -> (%d\00", align 1
@.str.4 = private unnamed_addr constant [2 x i8] c")\00", align 1
@.str.5 = private unnamed_addr constant [7 x i8] c" -> %d\00", align 1

; Function Attrs: inlinehint nounwind uwtable
define internal ptr @Ivy_ObjFanin1(ptr noundef %0) #1 {
  %2 = alloca ptr, align 8
  store ptr %0, ptr %2, align 8, !tbaa !8
  %3 = load ptr, ptr %2, align 8, !tbaa !8
  %4 = getelementptr inbounds nuw %struct.Ivy_Obj_t_, ptr %3, i32 0, i32 5
  %5 = load ptr, ptr %4, align 8, !tbaa !22
  %6 = call ptr @Ivy_Regular(ptr noundef %5)
  ret ptr %6
}

; Function Attrs: inlinehint nounwind uwtable
define internal i32 @Ivy_ObjIsNode(ptr noundef %0) #1 {
  %2 = alloca ptr, align 8
  store ptr %0, ptr %2, align 8, !tbaa !8
  %3 = load ptr, ptr %2, align 8, !tbaa !8
  %4 = getelementptr inbounds nuw %struct.Ivy_Obj_t_, ptr %3, i32 0, i32 2
  %5 = load i32, ptr %4, align 8
  %6 = and i32 %5, 15
  %7 = icmp eq i32 %6, 5
  br i1 %7, label %14, label %8

8:                                                ; preds = %1
  %9 = load ptr, ptr %2, align 8, !tbaa !8
  %10 = getelementptr inbounds nuw %struct.Ivy_Obj_t_, ptr %9, i32 0, i32 2
  %11 = load i32, ptr %10, align 8
  %12 = and i32 %11, 15
  %13 = icmp eq i32 %12, 6
  br label %14

14:                                               ; preds = %8, %1
  %15 = phi i1 [ true, %1 ], [ %13, %8 ]
  %16 = zext i1 %15 to i32
  ret i32 %16
}

; Function Attrs: inlinehint nounwind uwtable
define internal ptr @Ivy_ObjFanin0(ptr noundef %0) #1 {
  %2 = alloca ptr, align 8
  store ptr %0, ptr %2, align 8, !tbaa !8
  %3 = load ptr, ptr %2, align 8, !tbaa !8
  %4 = getelementptr inbounds nuw %struct.Ivy_Obj_t_, ptr %3, i32 0, i32 4
  %5 = load ptr, ptr %4, align 8, !tbaa !21
  %6 = call ptr @Ivy_Regular(ptr noundef %5)
  ret ptr %6
}

; Function Attrs: inlinehint nounwind uwtable
define internal void @Ivy_ObjSetTravIdPrevious(ptr noundef %0, ptr noundef %1) #1 {
  %3 = alloca ptr, align 8
  %4 = alloca ptr, align 8
  store ptr %0, ptr %3, align 8, !tbaa !3
  store ptr %1, ptr %4, align 8, !tbaa !8
  %5 = load ptr, ptr %3, align 8, !tbaa !3
  %6 = getelementptr inbounds nuw %struct.Ivy_Man_t_, ptr %5, i32 0, i32 12
  %7 = load i32, ptr %6, align 8, !tbaa !68
  %8 = sub nsw i32 %7, 1
  %9 = load ptr, ptr %4, align 8, !tbaa !8
  %10 = getelementptr inbounds nuw %struct.Ivy_Obj_t_, ptr %9, i32 0, i32 1
  store i32 %8, ptr %10, align 4, !tbaa !67
  ret void
}

; Function Attrs: inlinehint nounwind uwtable
define internal i32 @Ivy_ObjIsConst1(ptr noundef %0) #1 {
  %2 = alloca ptr, align 8
  store ptr %0, ptr %2, align 8, !tbaa !8
  %3 = load ptr, ptr %2, align 8, !tbaa !8
  %4 = getelementptr inbounds nuw %struct.Ivy_Obj_t_, ptr %3, i32 0, i32 0
  %5 = load i32, ptr %4, align 8, !tbaa !20
  %6 = icmp eq i32 %5, 0
  %7 = zext i1 %6 to i32
  ret i32 %7
}

; Function Attrs: inlinehint nounwind uwtable
define internal i32 @Ivy_ObjIsCi(ptr noundef %0) #1 {
  %2 = alloca ptr, align 8
  store ptr %0, ptr %2, align 8, !tbaa !8
  %3 = load ptr, ptr %2, align 8, !tbaa !8
  %4 = getelementptr inbounds nuw %struct.Ivy_Obj_t_, ptr %3, i32 0, i32 2
  %5 = load i32, ptr %4, align 8
  %6 = and i32 %5, 15
  %7 = icmp eq i32 %6, 1
  br i1 %7, label %14, label %8

8:                                                ; preds = %1
  %9 = load ptr, ptr %2, align 8, !tbaa !8
  %10 = getelementptr inbounds nuw %struct.Ivy_Obj_t_, ptr %9, i32 0, i32 2
  %11 = load i32, ptr %10, align 8
  %12 = and i32 %11, 15
  %13 = icmp eq i32 %12, 4
  br label %14

14:                                               ; preds = %8, %1
  %15 = phi i1 [ true, %1 ], [ %13, %8 ]
  %16 = zext i1 %15 to i32
  ret i32 %16
}

; Function Attrs: inlinehint nounwind uwtable
define internal ptr @Ivy_Regular(ptr noundef %0) #1 {
  %2 = alloca ptr, align 8
  store ptr %0, ptr %2, align 8, !tbaa !8
  %3 = load ptr, ptr %2, align 8, !tbaa !8
  %4 = ptrtoint ptr %3 to i64
  %5 = and i64 %4, -2
  %6 = inttoptr i64 %5 to ptr
  ret ptr %6
}

; Function Attrs: inlinehint nounwind uwtable
define internal i32 @Ivy_ObjRefs(ptr noundef %0) #1 {
  %2 = alloca ptr, align 8
  store ptr %0, ptr %2, align 8, !tbaa !8
  %3 = load ptr, ptr %2, align 8, !tbaa !8
  %4 = getelementptr inbounds nuw %struct.Ivy_Obj_t_, ptr %3, i32 0, i32 3
  %5 = load i32, ptr %4, align 4, !tbaa !69
  ret i32 %5
}

; Function Attrs: inlinehint nounwind uwtable
define internal void @Ivy_ObjSetTravIdCurrent(ptr noundef %0, ptr noundef %1) #1 {
  %3 = alloca ptr, align 8
  %4 = alloca ptr, align 8
  store ptr %0, ptr %3, align 8, !tbaa !3
  store ptr %1, ptr %4, align 8, !tbaa !8
  %5 = load ptr, ptr %3, align 8, !tbaa !3
  %6 = getelementptr inbounds nuw %struct.Ivy_Man_t_, ptr %5, i32 0, i32 12
  %7 = load i32, ptr %6, align 8, !tbaa !68
  %8 = load ptr, ptr %4, align 8, !tbaa !8
  %9 = getelementptr inbounds nuw %struct.Ivy_Obj_t_, ptr %8, i32 0, i32 1
  store i32 %7, ptr %9, align 4, !tbaa !67
  ret void
}

; Function Attrs: inlinehint nounwind uwtable
define internal i32 @Ivy_ObjId(ptr noundef %0) #1 {
  %2 = alloca ptr, align 8
  store ptr %0, ptr %2, align 8, !tbaa !8
  %3 = load ptr, ptr %2, align 8, !tbaa !8
  %4 = getelementptr inbounds nuw %struct.Ivy_Obj_t_, ptr %3, i32 0, i32 0
  %5 = load i32, ptr %4, align 8, !tbaa !20
  ret i32 %5
}

; Function Attrs: inlinehint nounwind uwtable
define internal i32 @Ivy_ObjIsTravIdCurrent(ptr noundef %0, ptr noundef %1) #1 {
  %3 = alloca ptr, align 8
  %4 = alloca ptr, align 8
  store ptr %0, ptr %3, align 8, !tbaa !3
  store ptr %1, ptr %4, align 8, !tbaa !8
  %5 = load ptr, ptr %4, align 8, !tbaa !8
  %6 = getelementptr inbounds nuw %struct.Ivy_Obj_t_, ptr %5, i32 0, i32 1
  %7 = load i32, ptr %6, align 4, !tbaa !67
  %8 = load ptr, ptr %3, align 8, !tbaa !3
  %9 = getelementptr inbounds nuw %struct.Ivy_Man_t_, ptr %8, i32 0, i32 12
  %10 = load i32, ptr %9, align 8, !tbaa !68
  %11 = icmp eq i32 %7, %10
  %12 = zext i1 %11 to i32
  ret i32 %12
}

; Function Attrs: inlinehint nounwind uwtable
define internal i32 @Ivy_ObjIsTravIdPrevious(ptr noundef %0, ptr noundef %1) #1 {
  %3 = alloca ptr, align 8
  %4 = alloca ptr, align 8
  store ptr %0, ptr %3, align 8, !tbaa !3
  store ptr %1, ptr %4, align 8, !tbaa !8
  %5 = load ptr, ptr %4, align 8, !tbaa !8
  %6 = getelementptr inbounds nuw %struct.Ivy_Obj_t_, ptr %5, i32 0, i32 1
  %7 = load i32, ptr %6, align 4, !tbaa !67
  %8 = load ptr, ptr %3, align 8, !tbaa !3
  %9 = getelementptr inbounds nuw %struct.Ivy_Man_t_, ptr %8, i32 0, i32 12
  %10 = load i32, ptr %9, align 8, !tbaa !68
  %11 = sub nsw i32 %10, 1
  %12 = icmp eq i32 %7, %11
  %13 = zext i1 %12 to i32
  ret i32 %13
}

; Function Attrs: nounwind uwtable
define i32 @Ivy_ManIsAcyclic_rec(ptr noundef %0, ptr noundef %1) #0 {
  %3 = alloca i32, align 4
  %4 = alloca ptr, align 8
  %5 = alloca ptr, align 8
  %6 = alloca ptr, align 8
  %7 = alloca i32, align 4
  store ptr %0, ptr %4, align 8, !tbaa !3
  store ptr %1, ptr %5, align 8, !tbaa !8
  %8 = load ptr, ptr %4, align 8, !tbaa !3
  %9 = load ptr, ptr %5, align 8, !tbaa !8
  %10 = call i32 @Ivy_ObjIsTravIdPrevious(ptr noundef %8, ptr noundef %9)
  %11 = icmp ne i32 %10, 0
  br i1 %11, label %12, label %13

12:                                               ; preds = %2
  store i32 1, ptr %3, align 4
  br label %133

13:                                               ; preds = %2
  %14 = load ptr, ptr %4, align 8, !tbaa !3
  %15 = load ptr, ptr %5, align 8, !tbaa !8
  %16 = call i32 @Ivy_ObjIsTravIdCurrent(ptr noundef %14, ptr noundef %15)
  %17 = icmp ne i32 %16, 0
  br i1 %17, label %18, label %29

18:                                               ; preds = %13
  %19 = load ptr, ptr @stdout, align 8, !tbaa !63
  %20 = call i32 (ptr, ptr, ...) @fprintf(ptr noundef %19, ptr noundef @.str) #8
  %21 = load ptr, ptr @stdout, align 8, !tbaa !63
  %22 = load ptr, ptr %5, align 8, !tbaa !8
  %23 = call i32 @Ivy_ObjId(ptr noundef %22)
  %24 = call i32 (ptr, ptr, ...) @fprintf(ptr noundef %21, ptr noundef @.str.1, i32 noundef %23) #8
  %25 = load ptr, ptr @stdout, align 8, !tbaa !63
  %26 = load ptr, ptr %5, align 8, !tbaa !8
  %27 = call i32 @Ivy_ObjId(ptr noundef %26)
  %28 = call i32 (ptr, ptr, ...) @fprintf(ptr noundef %25, ptr noundef @.str.2, i32 noundef %27) #8
  store i32 0, ptr %3, align 4
  br label %133

29:                                               ; preds = %13
  %30 = load ptr, ptr %4, align 8, !tbaa !3
  %31 = load ptr, ptr %5, align 8, !tbaa !8
  call void @Ivy_ObjSetTravIdCurrent(ptr noundef %30, ptr noundef %31)
  %32 = load ptr, ptr %4, align 8, !tbaa !3
  %33 = getelementptr inbounds nuw %struct.Ivy_Man_t_, ptr %32, i32 0, i32 18
  %34 = load ptr, ptr %33, align 8, !tbaa !12
  %35 = icmp eq ptr %34, null
  br i1 %35, label %36, label %93

36:                                               ; preds = %29
  %37 = load ptr, ptr %5, align 8, !tbaa !8
  %38 = getelementptr inbounds nuw %struct.Ivy_Obj_t_, ptr %37, i32 0, i32 11
  %39 = load ptr, ptr %38, align 8, !tbaa !19
  %40 = icmp ne ptr %39, null
  br i1 %40, label %41, label %93

41:                                               ; preds = %36
  %42 = load ptr, ptr %5, align 8, !tbaa !8
  %43 = call i32 @Ivy_ObjRefs(ptr noundef %42)
  %44 = icmp sgt i32 %43, 0
  br i1 %44, label %45, label %93

45:                                               ; preds = %41
  call void @llvm.lifetime.start.p0(i64 8, ptr %6) #8
  %46 = load ptr, ptr %5, align 8, !tbaa !8
  %47 = getelementptr inbounds nuw %struct.Ivy_Obj_t_, ptr %46, i32 0, i32 11
  %48 = load ptr, ptr %47, align 8, !tbaa !19
  store ptr %48, ptr %6, align 8, !tbaa !8
  br label %49

49:                                               ; preds = %84, %45
  %50 = load ptr, ptr %6, align 8, !tbaa !8
  %51 = load ptr, ptr %5, align 8, !tbaa !8
  %52 = icmp ne ptr %50, %51
  br i1 %52, label %53, label %89

53:                                               ; preds = %49
  %54 = load ptr, ptr %4, align 8, !tbaa !3
  %55 = load ptr, ptr %6, align 8, !tbaa !8
  %56 = call i32 @Ivy_ManIsAcyclic_rec(ptr noundef %54, ptr noundef %55)
  %57 = icmp ne i32 %56, 0
  br i1 %57, label %83, label %58

58:                                               ; preds = %53
  %59 = load ptr, ptr @stdout, align 8, !tbaa !63
  %60 = load ptr, ptr %5, align 8, !tbaa !8
  %61 = call i32 @Ivy_ObjId(ptr noundef %60)
  %62 = call i32 (ptr, ptr, ...) @fprintf(ptr noundef %59, ptr noundef @.str.3, i32 noundef %61) #8
  %63 = load ptr, ptr %5, align 8, !tbaa !8
  %64 = getelementptr inbounds nuw %struct.Ivy_Obj_t_, ptr %63, i32 0, i32 11
  %65 = load ptr, ptr %64, align 8, !tbaa !19
  store ptr %65, ptr %6, align 8, !tbaa !8
  br label %66

66:                                               ; preds = %75, %58
  %67 = load ptr, ptr %6, align 8, !tbaa !8
  %68 = load ptr, ptr %5, align 8, !tbaa !8
  %69 = icmp ne ptr %67, %68
  br i1 %69, label %70, label %80

70:                                               ; preds = %66
  %71 = load ptr, ptr @stdout, align 8, !tbaa !63
  %72 = load ptr, ptr %6, align 8, !tbaa !8
  %73 = call i32 @Ivy_ObjId(ptr noundef %72)
  %74 = call i32 (ptr, ptr, ...) @fprintf(ptr noundef %71, ptr noundef @.str.2, i32 noundef %73) #8
  br label %75

75:                                               ; preds = %70
  %76 = load ptr, ptr %6, align 8, !tbaa !8
  %77 = getelementptr inbounds nuw %struct.Ivy_Obj_t_, ptr %76, i32 0, i32 11
  %78 = load ptr, ptr %77, align 8, !tbaa !19
  %79 = call ptr @Ivy_Regular(ptr noundef %78)
  store ptr %79, ptr %6, align 8, !tbaa !8
  br label %66, !llvm.loop !65

80:                                               ; preds = %66
  %81 = load ptr, ptr @stdout, align 8, !tbaa !63
  %82 = call i32 (ptr, ptr, ...) @fprintf(ptr noundef %81, ptr noundef @.str.4) #8
  store i32 0, ptr %3, align 4
  store i32 1, ptr %7, align 4
  br label %90

83:                                               ; preds = %53
  br label %84

84:                                               ; preds = %83
  %85 = load ptr, ptr %6, align 8, !tbaa !8
  %86 = getelementptr inbounds nuw %struct.Ivy_Obj_t_, ptr %85, i32 0, i32 11
  %87 = load ptr, ptr %86, align 8, !tbaa !19
  %88 = call ptr @Ivy_Regular(ptr noundef %87)
  store ptr %88, ptr %6, align 8, !tbaa !8
  br label %49, !llvm.loop !66

89:                                               ; preds = %49
  store i32 0, ptr %7, align 4
  br label %90

90:                                               ; preds = %89, %80
  call void @llvm.lifetime.end.p0(i64 8, ptr %6) #8
  %91 = load i32, ptr %7, align 4
  switch i32 %91, label %135 [
    i32 0, label %92
    i32 1, label %133
  ]

92:                                               ; preds = %90
  br label %93

93:                                               ; preds = %92, %41, %36, %29
  %94 = load ptr, ptr %5, align 8, !tbaa !8
  %95 = call i32 @Ivy_ObjIsCi(ptr noundef %94)
  %96 = icmp ne i32 %95, 0
  br i1 %96, label %101, label %97

97:                                               ; preds = %93
  %98 = load ptr, ptr %5, align 8, !tbaa !8
  %99 = call i32 @Ivy_ObjIsConst1(ptr noundef %98)
  %100 = icmp ne i32 %99, 0
  br i1 %100, label %101, label %104

101:                                              ; preds = %97, %93
  %102 = load ptr, ptr %4, align 8, !tbaa !3
  %103 = load ptr, ptr %5, align 8, !tbaa !8
  call void @Ivy_ObjSetTravIdPrevious(ptr noundef %102, ptr noundef %103)
  store i32 1, ptr %3, align 4
  br label %133

104:                                              ; preds = %97
  %105 = load ptr, ptr %4, align 8, !tbaa !3
  %106 = load ptr, ptr %5, align 8, !tbaa !8
  %107 = call ptr @Ivy_ObjFanin0(ptr noundef %106)
  %108 = call i32 @Ivy_ManIsAcyclic_rec(ptr noundef %105, ptr noundef %107)
  %109 = icmp ne i32 %108, 0
  br i1 %109, label %115, label %110

110:                                              ; preds = %104
  %111 = load ptr, ptr @stdout, align 8, !tbaa !63
  %112 = load ptr, ptr %5, align 8, !tbaa !8
  %113 = call i32 @Ivy_ObjId(ptr noundef %112)
  %114 = call i32 (ptr, ptr, ...) @fprintf(ptr noundef %111, ptr noundef @.str.5, i32 noundef %113) #8
  store i32 0, ptr %3, align 4
  br label %133

115:                                              ; preds = %104
  %116 = load ptr, ptr %5, align 8, !tbaa !8
  %117 = call i32 @Ivy_ObjIsNode(ptr noundef %116)
  %118 = icmp ne i32 %117, 0
  br i1 %118, label %119, label %130

119:                                              ; preds = %115
  %120 = load ptr, ptr %4, align 8, !tbaa !3
  %121 = load ptr, ptr %5, align 8, !tbaa !8
  %122 = call ptr @Ivy_ObjFanin1(ptr noundef %121)
  %123 = call i32 @Ivy_ManIsAcyclic_rec(ptr noundef %120, ptr noundef %122)
  %124 = icmp ne i32 %123, 0
  br i1 %124, label %130, label %125

125:                                              ; preds = %119
  %126 = load ptr, ptr @stdout, align 8, !tbaa !63
  %127 = load ptr, ptr %5, align 8, !tbaa !8
  %128 = call i32 @Ivy_ObjId(ptr noundef %127)
  %129 = call i32 (ptr, ptr, ...) @fprintf(ptr noundef %126, ptr noundef @.str.5, i32 noundef %128) #8
  store i32 0, ptr %3, align 4
  br label %133

130:                                              ; preds = %119, %115
  %131 = load ptr, ptr %4, align 8, !tbaa !3
  %132 = load ptr, ptr %5, align 8, !tbaa !8
  call void @Ivy_ObjSetTravIdPrevious(ptr noundef %131, ptr noundef %132)
  store i32 1, ptr %3, align 4
  br label %133

133:                                              ; preds = %130, %125, %110, %101, %90, %18, %12
  %134 = load i32, ptr %3, align 4
  ret i32 %134

135:                                              ; preds = %90
  unreachable
}