; Function Attrs: nofree nounwind uwtable
define range(i32 0, 2) i32 @Ivy_ManIsAcyclic_rec(ptr noundef %0, ptr noundef %1) local_unnamed_addr #2 {
  %3 = getelementptr i8, ptr %0, i64 176
  %.val60 = load i32, ptr %3, align 8, !tbaa !54
  %4 = getelementptr i8, ptr %1, i64 4
  %.val61 = load i32, ptr %4, align 4, !tbaa !55
  %5 = add nsw i32 %.val60, -1
  %.not = icmp eq i32 %.val61, %5
  br i1 %.not, label %71, label %6

6:                                                ; preds = %2
  %.not70 = icmp eq i32 %.val61, %.val60
  br i1 %.not70, label %7, label %14

7:                                                ; preds = %6
  %8 = load ptr, ptr @stdout, align 8, !tbaa !56
  %9 = tail call i64 @fwrite(ptr nonnull @.str, i64 37, i64 1, ptr %8)
  %10 = load ptr, ptr @stdout, align 8, !tbaa !56
  %.val55 = load i32, ptr %1, align 8, !tbaa !3
  %11 = tail call i32 (ptr, ptr, ...) @fprintf(ptr noundef %10, ptr noundef nonnull @.str.1, i32 noundef %.val55) #15
  %12 = load ptr, ptr @stdout, align 8, !tbaa !56
  %.val56 = load i32, ptr %1, align 8, !tbaa !3
  %13 = tail call i32 (ptr, ptr, ...) @fprintf(ptr noundef %12, ptr noundef nonnull @.str.2, i32 noundef %.val56) #15
  br label %71

14:                                               ; preds = %6
  store i32 %.val60, ptr %4, align 4, !tbaa !55
  %15 = getelementptr inbounds nuw i8, ptr %0, i64 216
  %16 = load ptr, ptr %15, align 8, !tbaa !10
  %17 = icmp eq ptr %16, null
  br i1 %17, label %18, label %.thread

18:                                               ; preds = %14
  %19 = getelementptr inbounds nuw i8, ptr %1, i64 72
  %20 = load ptr, ptr %19, align 8, !tbaa !17
  %.not42 = icmp eq ptr %20, null
  br i1 %.not42, label %.thread, label %21

21:                                               ; preds = %18
  %22 = getelementptr i8, ptr %1, i64 12
  %.val65 = load i32, ptr %22, align 4, !tbaa !58
  %23 = icmp slt i32 %.val65, 1
  %.not43.not74 = icmp eq ptr %20, %1
  %or.cond = or i1 %23, %.not43.not74
  br i1 %or.cond, label %.thread, label %.lr.ph

.lr.ph:                                           ; preds = %21, %36
  %.03775 = phi ptr [ %41, %36 ], [ %20, %21 ]
  %24 = tail call i32 @Ivy_ManIsAcyclic_rec(ptr noundef %0, ptr noundef %.03775)
  %.not44 = icmp eq i32 %24, 0
  br i1 %.not44, label %25, label %36

25:                                               ; preds = %.lr.ph
  %26 = load ptr, ptr @stdout, align 8, !tbaa !56
  %.val57 = load i32, ptr %1, align 8, !tbaa !3
  %27 = tail call i32 (ptr, ptr, ...) @fprintf(ptr noundef %26, ptr noundef nonnull @.str.3, i32 noundef %.val57) #15
  %28 = load ptr, ptr %19, align 8, !tbaa !17
  %.not4576 = icmp eq ptr %28, %1
  br i1 %.not4576, label %._crit_edge, label %.lr.ph78

.lr.ph78:                                         ; preds = %25, %.lr.ph78
  %.177 = phi ptr [ %35, %.lr.ph78 ], [ %28, %25 ]
  %29 = load ptr, ptr @stdout, align 8, !tbaa !56
  %.1.val = load i32, ptr %.177, align 8, !tbaa !3
  %30 = tail call i32 (ptr, ptr, ...) @fprintf(ptr noundef %29, ptr noundef nonnull @.str.2, i32 noundef %.1.val) #15
  %31 = getelementptr inbounds nuw i8, ptr %.177, i64 72
  %32 = load ptr, ptr %31, align 8, !tbaa !17
  %33 = ptrtoint ptr %32 to i64
  %34 = and i64 %33, -2
  %35 = inttoptr i64 %34 to ptr
  %.not45 = icmp eq ptr %1, %35
  br i1 %.not45, label %._crit_edge, label %.lr.ph78, !llvm.loop !59

36:                                               ; preds = %.lr.ph
  %37 = getelementptr inbounds nuw i8, ptr %.03775, i64 72
  %38 = load ptr, ptr %37, align 8, !tbaa !17
  %39 = ptrtoint ptr %38 to i64
  %40 = and i64 %39, -2
  %41 = inttoptr i64 %40 to ptr
  %.not43.not = icmp eq ptr %1, %41
  br i1 %.not43.not, label %.thread, label %.lr.ph, !llvm.loop !60

._crit_edge:                                      ; preds = %.lr.ph78, %25
  %42 = load ptr, ptr @stdout, align 8, !tbaa !56
  %fputc = tail call i32 @fputc(i32 41, ptr %42)
  br label %71

.thread:                                          ; preds = %36, %21, %18, %14
  %43 = getelementptr i8, ptr %1, i64 8
  %.val51 = load i32, ptr %43, align 8
  %44 = and i32 %.val51, 15
  switch i32 %44, label %45 [
    i32 4, label %46
    i32 1, label %46
  ]

45:                                               ; preds = %.thread
  %.val = load i32, ptr %1, align 8, !tbaa !3
  %.not73 = icmp eq i32 %.val, 0
  br i1 %.not73, label %46, label %48

46:                                               ; preds = %.thread, %.thread, %45
  %.val66 = load i32, ptr %3, align 8, !tbaa !54
  %47 = add nsw i32 %.val66, -1
  store i32 %47, ptr %4, align 4, !tbaa !55
  br label %71

48:                                               ; preds = %45
  %49 = getelementptr i8, ptr %1, i64 16
  %.val52 = load ptr, ptr %49, align 8, !tbaa !18
  %50 = ptrtoint ptr %.val52 to i64
  %51 = and i64 %50, -2
  %52 = inttoptr i64 %51 to ptr
  %53 = tail call i32 @Ivy_ManIsAcyclic_rec(ptr noundef %0, ptr noundef %52)
  %.not48 = icmp eq i32 %53, 0
  br i1 %.not48, label %54, label %57

54:                                               ; preds = %48
  %55 = load ptr, ptr @stdout, align 8, !tbaa !56
  %.val58 = load i32, ptr %1, align 8, !tbaa !3
  %56 = tail call i32 (ptr, ptr, ...) @fprintf(ptr noundef %55, ptr noundef nonnull @.str.5, i32 noundef %.val58) #15
  br label %71

57:                                               ; preds = %48
  %.val54 = load i32, ptr %43, align 8
  %58 = and i32 %.val54, 15
  %59 = add nsw i32 %58, -7
  %narrow.i68 = icmp ult i32 %59, -2
  br i1 %narrow.i68, label %69, label %60

60:                                               ; preds = %57
  %61 = getelementptr i8, ptr %1, i64 24
  %.val53 = load ptr, ptr %61, align 8, !tbaa !19
  %62 = ptrtoint ptr %.val53 to i64
  %63 = and i64 %62, -2
  %64 = inttoptr i64 %63 to ptr
  %65 = tail call i32 @Ivy_ManIsAcyclic_rec(ptr noundef %0, ptr noundef %64)
  %.not50 = icmp eq i32 %65, 0
  br i1 %.not50, label %66, label %69

66:                                               ; preds = %60
  %67 = load ptr, ptr @stdout, align 8, !tbaa !56
  %.val59 = load i32, ptr %1, align 8, !tbaa !3
  %68 = tail call i32 (ptr, ptr, ...) @fprintf(ptr noundef %67, ptr noundef nonnull @.str.5, i32 noundef %.val59) #15
  br label %71

69:                                               ; preds = %60, %57
  %.val67 = load i32, ptr %3, align 8, !tbaa !54
  %70 = add nsw i32 %.val67, -1
  store i32 %70, ptr %4, align 4, !tbaa !55
  br label %71

71:                                               ; preds = %._crit_edge, %2, %69, %66, %54, %46, %7
  %.038 = phi i32 [ 0, %7 ], [ 0, %._crit_edge ], [ 1, %46 ], [ 1, %69 ], [ 0, %66 ], [ 0, %54 ], [ 1, %2 ]
  ret i32 %.038
}